; Function Attrs: nounwind uwtable
define hidden noalias ptr @mi_zalloc_aligned(i64 noundef %0, i64 noundef %1) local_unnamed_addr #0 {
  %3 = tail call align 8 ptr @llvm.threadlocal.address.p0(ptr align 8 @_mi_heap_default)
  %4 = load ptr, ptr %3, align 8, !tbaa !17
  %5 = icmp eq i64 %1, 0
  br i1 %5, label %mi_heap_zalloc_aligned.exit, label %6, !prof !3

6:                                                ; preds = %2
  %7 = tail call range(i64 1, 65) i64 @llvm.ctpop.i64(i64 %1)
  %8 = icmp samesign ugt i64 %7, 1
  %9 = icmp ugt i64 %1, 1048576
  %or.cond.i.i.i = or i1 %9, %8
  %10 = icmp slt i64 %0, 0
  %or.cond34.i.i.i = or i1 %10, %or.cond.i.i.i
  br i1 %or.cond34.i.i.i, label %mi_heap_zalloc_aligned.exit, label %11, !prof !4

11:                                               ; preds = %6
  %12 = icmp samesign ult i64 %0, 1025
  br i1 %12, label %13, label %28, !prof !5

13:                                               ; preds = %11
  %14 = add nsw i64 %1, -1
  %15 = add nuw nsw i64 %0, 7
  %16 = lshr i64 %15, 3
  %17 = getelementptr inbounds nuw i8, ptr %4, i64 8
  %18 = getelementptr inbounds nuw [129 x ptr], ptr %17, i64 0, i64 %16
  %19 = load ptr, ptr %18, align 8, !tbaa !6
  %20 = getelementptr inbounds nuw i8, ptr %19, i64 16
  %21 = load ptr, ptr %20, align 8, !tbaa !11
  %22 = ptrtoint ptr %21 to i64
  %23 = and i64 %14, %22
  %24 = icmp ne i64 %23, 0
  %25 = icmp eq ptr %21, null
  %.not33.i.i.i = select i1 %25, i1 true, i1 %24
  br i1 %.not33.i.i.i, label %28, label %26, !prof !3

26:                                               ; preds = %13
  %27 = tail call ptr @_mi_page_malloc(ptr noundef nonnull %4, ptr noundef nonnull %19, i64 noundef %0) #8
  tail call void @_mi_block_zero_init(ptr noundef nonnull %19, ptr noundef %27, i64 noundef %0) #8
  br label %mi_heap_zalloc_aligned.exit

28:                                               ; preds = %13, %11
  %29 = tail call fastcc ptr @mi_heap_malloc_zero_aligned_at_fallback(ptr noundef %4, i64 noundef %0, i64 noundef %1, i64 noundef 0, i1 noundef zeroext true)
  br label %mi_heap_zalloc_aligned.exit

mi_heap_zalloc_aligned.exit:                      ; preds = %2, %6, %26, %28
  %.028.i.i.i = phi ptr [ null, %6 ], [ %29, %28 ], [ null, %2 ], [ %27, %26 ]
  ret ptr %.028.i.i.i
}